target datalayout = "e-m:e-p270:32:32-p271:32:32-p272:64:64-i64:64-i128:128-f80:128-n8:16:32:64-S128"
target triple = "x86_64-pc-linux-gnu"

%struct.H5G_node_key_t = type { i64 }
%struct.H5G_bt_common_t = type { ptr, ptr, i64 }

@H5G_init_g = external global i8, align 1
@H5_libterm_g = external global i8, align 1
@.str.2 = private unnamed_addr constant [101 x i8] c"generated/home/dtcxzyw/WorkSpace/Projects/compilers/llvm-opt-benchmark/bench/hdf5/hdf5/src/H5Gnode.c\00", align 1
@H5E_SYM_g = external global i64, align 8
@H5E_CANTGET_g = external global i64, align 8
@.str.44 = private unnamed_addr constant [23 x i8] c"unable to get key name\00", align 1
@__func__.H5G__node_cmp3 = private unnamed_addr constant [15 x i8] c"H5G__node_cmp3\00", align 1

; Function Attrs: nounwind uwtable
define internal i32 @H5G__node_cmp3(ptr noundef %0, ptr noundef %1, ptr noundef %2) #0 {
  %4 = alloca ptr, align 8
  %5 = alloca ptr, align 8
  %6 = alloca ptr, align 8
  %7 = alloca ptr, align 8
  %8 = alloca ptr, align 8
  %9 = alloca ptr, align 8
  %10 = alloca ptr, align 8
  %11 = alloca i32, align 4
  %12 = alloca i8, align 1
  store ptr %0, ptr %4, align 8, !tbaa !8
  store ptr %1, ptr %5, align 8, !tbaa !8
  store ptr %2, ptr %6, align 8, !tbaa !8
  call void @llvm.lifetime.start.p0(i64 8, ptr %7) #8
  %13 = load ptr, ptr %5, align 8, !tbaa !8
  store ptr %13, ptr %7, align 8, !tbaa !35
  call void @llvm.lifetime.start.p0(i64 8, ptr %8) #8
  %14 = load ptr, ptr %4, align 8, !tbaa !8
  store ptr %14, ptr %8, align 8, !tbaa !17
  call void @llvm.lifetime.start.p0(i64 8, ptr %9) #8
  %15 = load ptr, ptr %6, align 8, !tbaa !8
  store ptr %15, ptr %9, align 8, !tbaa !17
  call void @llvm.lifetime.start.p0(i64 8, ptr %10) #8
  call void @llvm.lifetime.start.p0(i64 4, ptr %11) #8
  store i32 0, ptr %11, align 4, !tbaa !13
  call void @llvm.lifetime.start.p0(i64 1, ptr %12) #8
  store i8 0, ptr %12, align 1, !tbaa !9
  %16 = load i8, ptr @H5G_init_g, align 1, !tbaa !9, !range !11, !noundef !12
  %17 = trunc i8 %16 to i1
  br i1 %17, label %22, label %18

18:                                               ; preds = %3
  %19 = load i8, ptr @H5_libterm_g, align 1, !tbaa !9, !range !11, !noundef !12
  %20 = trunc i8 %19 to i1
  %21 = xor i1 %20, true
  br label %22

22:                                               ; preds = %18, %3
  %23 = phi i1 [ true, %3 ], [ %21, %18 ]
  %24 = xor i1 %23, true
  %25 = xor i1 %24, true
  %26 = zext i1 %25 to i32
  %27 = sext i32 %26 to i64
  %28 = call i64 @llvm.expect.i64(i64 %27, i64 1)
  %29 = icmp ne i64 %28, 0
  br i1 %29, label %30, label %119

30:                                               ; preds = %22
  %31 = load ptr, ptr %7, align 8, !tbaa !35
  %32 = getelementptr inbounds nuw %struct.H5G_bt_common_t, ptr %31, i32 0, i32 1
  %33 = load ptr, ptr %32, align 8, !tbaa !37
  %34 = load ptr, ptr %8, align 8, !tbaa !17
  %35 = getelementptr inbounds nuw %struct.H5G_node_key_t, ptr %34, i32 0, i32 0
  %36 = load i64, ptr %35, align 8, !tbaa !33
  %37 = call ptr @H5HL_offset_into(ptr noundef %33, i64 noundef %36)
  store ptr %37, ptr %10, align 8, !tbaa !41
  %38 = icmp eq ptr %37, null
  br i1 %38, label %39, label %58

39:                                               ; preds = %30
  br label %40

40:                                               ; preds = %39
  br label %41

41:                                               ; preds = %40
  br label %42

42:                                               ; preds = %41
  %43 = load i64, ptr @H5E_SYM_g, align 8, !tbaa !21
  %44 = load i64, ptr @H5E_CANTGET_g, align 8, !tbaa !21
  %45 = call i32 (ptr, ptr, i32, i64, i64, ptr, ...) @H5E_printf_stack(ptr noundef @.str.2, ptr noundef @__func__.H5G__node_cmp3, i32 noundef 414, i64 noundef %43, i64 noundef %44, ptr noundef @.str.44)
  br label %46

46:                                               ; preds = %42
  br label %47

47:                                               ; preds = %46
  store i8 1, ptr %12, align 1, !tbaa !9
  %48 = load i8, ptr %12, align 1, !tbaa !9, !range !11, !noundef !12
  %49 = trunc i8 %48 to i1
  %50 = zext i1 %49 to i8
  store i8 %50, ptr %12, align 1, !tbaa !9
  br label %51

51:                                               ; preds = %47
  br label %52

52:                                               ; preds = %51
  br label %53

53:                                               ; preds = %52
  store i32 -1, ptr %11, align 4, !tbaa !13
  br label %118

54:                                               ; No predecessors!
  br label %55

55:                                               ; preds = %54
  br label %56

56:                                               ; preds = %55
  br label %57

57:                                               ; preds = %56
  br label %58

58:                                               ; preds = %57, %30
  %59 = load ptr, ptr %7, align 8, !tbaa !35
  %60 = getelementptr inbounds nuw %struct.H5G_bt_common_t, ptr %59, i32 0, i32 0
  %61 = load ptr, ptr %60, align 8, !tbaa !43
  %62 = load ptr, ptr %10, align 8, !tbaa !41
  %63 = load ptr, ptr %7, align 8, !tbaa !35
  %64 = getelementptr inbounds nuw %struct.H5G_bt_common_t, ptr %63, i32 0, i32 2
  %65 = load i64, ptr %64, align 8, !tbaa !42
  %66 = load ptr, ptr %8, align 8, !tbaa !17
  %67 = getelementptr inbounds nuw %struct.H5G_node_key_t, ptr %66, i32 0, i32 0
  %68 = load i64, ptr %67, align 8, !tbaa !33
  %69 = sub i64 %65, %68
  %70 = call i32 @strncmp(ptr noundef %61, ptr noundef %62, i64 noundef %69) #9
  %71 = icmp sle i32 %70, 0
  br i1 %71, label %72, label %73

72:                                               ; preds = %58
  store i32 -1, ptr %11, align 4, !tbaa !13
  br label %117

73:                                               ; preds = %58
  %74 = load ptr, ptr %7, align 8, !tbaa !35
  %75 = getelementptr inbounds nuw %struct.H5G_bt_common_t, ptr %74, i32 0, i32 1
  %76 = load ptr, ptr %75, align 8, !tbaa !37
  %77 = load ptr, ptr %9, align 8, !tbaa !17
  %78 = getelementptr inbounds nuw %struct.H5G_node_key_t, ptr %77, i32 0, i32 0
  %79 = load i64, ptr %78, align 8, !tbaa !33
  %80 = call ptr @H5HL_offset_into(ptr noundef %76, i64 noundef %79)
  store ptr %80, ptr %10, align 8, !tbaa !41
  %81 = icmp eq ptr %80, null
  br i1 %81, label %82, label %101

82:                                               ; preds = %73
  br label %83

83:                                               ; preds = %82
  br label %84

84:                                               ; preds = %83
  br label %85

85:                                               ; preds = %84
  %86 = load i64, ptr @H5E_SYM_g, align 8, !tbaa !21
  %87 = load i64, ptr @H5E_CANTGET_g, align 8, !tbaa !21
  %88 = call i32 (ptr, ptr, i32, i64, i64, ptr, ...) @H5E_printf_stack(ptr noundef @.str.2, ptr noundef @__func__.H5G__node_cmp3, i32 noundef 420, i64 noundef %86, i64 noundef %87, ptr noundef @.str.44)
  br label %89

89:                                               ; preds = %85
  br label %90

90:                                               ; preds = %89
  store i8 1, ptr %12, align 1, !tbaa !9
  %91 = load i8, ptr %12, align 1, !tbaa !9, !range !11, !noundef !12
  %92 = trunc i8 %91 to i1
  %93 = zext i1 %92 to i8
  store i8 %93, ptr %12, align 1, !tbaa !9
  br label %94

94:                                               ; preds = %90
  br label %95

95:                                               ; preds = %94
  br label %96

96:                                               ; preds = %95
  store i32 -1, ptr %11, align 4, !tbaa !13
  br label %118

97:                                               ; No predecessors!
  br label %98

98:                                               ; preds = %97
  br label %99

99:                                               ; preds = %98
  br label %100

100:                                              ; preds = %99
  br label %101

101:                                              ; preds = %100, %73
  %102 = load ptr, ptr %7, align 8, !tbaa !35
  %103 = getelementptr inbounds nuw %struct.H5G_bt_common_t, ptr %102, i32 0, i32 0
  %104 = load ptr, ptr %103, align 8, !tbaa !43
  %105 = load ptr, ptr %10, align 8, !tbaa !41
  %106 = load ptr, ptr %7, align 8, !tbaa !35
  %107 = getelementptr inbounds nuw %struct.H5G_bt_common_t, ptr %106, i32 0, i32 2
  %108 = load i64, ptr %107, align 8, !tbaa !42
  %109 = load ptr, ptr %9, align 8, !tbaa !17
  %110 = getelementptr inbounds nuw %struct.H5G_node_key_t, ptr %109, i32 0, i32 0
  %111 = load i64, ptr %110, align 8, !tbaa !33
  %112 = sub i64 %108, %111
  %113 = call i32 @strncmp(ptr noundef %104, ptr noundef %105, i64 noundef %112) #9
  %114 = icmp sgt i32 %113, 0
  br i1 %114, label %115, label %116

115:                                              ; preds = %101
  store i32 1, ptr %11, align 4, !tbaa !13
  br label %116

116:                                              ; preds = %115, %101
  br label %117

117:                                              ; preds = %116, %72
  br label %118

118:                                              ; preds = %117, %96, %53
  br label %119

119:                                              ; preds = %118, %22
  %120 = load i32, ptr %11, align 4, !tbaa !13
  call void @llvm.lifetime.end.p0(i64 1, ptr %12) #8
  call void @llvm.lifetime.end.p0(i64 4, ptr %11) #8
  call void @llvm.lifetime.end.p0(i64 8, ptr %10) #8
  call void @llvm.lifetime.end.p0(i64 8, ptr %9) #8
  call void @llvm.lifetime.end.p0(i64 8, ptr %8) #8
  call void @llvm.lifetime.end.p0(i64 8, ptr %7) #8
  ret i32 %120
}