; Function Attrs: nounwind uwtable
define internal range(i32 -1, 2) i32 @H5G__node_cmp3(ptr noundef readonly captures(none) %0, ptr noundef readonly captures(none) %1, ptr noundef readonly captures(none) %2) #0 {
  %4 = load i8, ptr @H5G_init_g, align 1, !tbaa !3, !range !7, !noundef !8
  %5 = trunc nuw i8 %4 to i1
  %6 = load i8, ptr @H5_libterm_g, align 1, !range !7
  %7 = trunc nuw i8 %6 to i1
  %8 = xor i1 %7, true
  %9 = select i1 %5, i1 true, i1 %8
  br i1 %9, label %10, label %44, !prof !9

10:                                               ; preds = %3
  %11 = getelementptr inbounds nuw i8, ptr %1, i64 8
  %12 = load ptr, ptr %11, align 8, !tbaa !27
  %13 = load i64, ptr %0, align 8, !tbaa !25
  %14 = tail call ptr @H5HL_offset_into(ptr noundef %12, i64 noundef %13) #9
  %15 = icmp eq ptr %14, null
  br i1 %15, label %16, label %20

16:                                               ; preds = %10
  %17 = load i64, ptr @H5E_SYM_g, align 8, !tbaa !10
  %18 = load i64, ptr @H5E_CANTGET_g, align 8, !tbaa !10
  %19 = tail call i32 (ptr, ptr, i32, i64, i64, ptr, ...) @H5E_printf_stack(ptr noundef nonnull @.str.2, ptr noundef nonnull @__func__.H5G__node_cmp3, i32 noundef 414, i64 noundef %17, i64 noundef %18, ptr noundef nonnull @.str.44) #9
  br label %44

20:                                               ; preds = %10
  %21 = load ptr, ptr %1, align 8, !tbaa !32
  %22 = getelementptr inbounds nuw i8, ptr %1, i64 16
  %23 = load i64, ptr %22, align 8, !tbaa !31
  %24 = load i64, ptr %0, align 8, !tbaa !25
  %25 = sub i64 %23, %24
  %26 = tail call i32 @strncmp(ptr noundef %21, ptr noundef nonnull %14, i64 noundef %25) #10
  %27 = icmp slt i32 %26, 1
  br i1 %27, label %44, label %28

28:                                               ; preds = %20
  %29 = load ptr, ptr %11, align 8, !tbaa !27
  %30 = load i64, ptr %2, align 8, !tbaa !25
  %31 = tail call ptr @H5HL_offset_into(ptr noundef %29, i64 noundef %30) #9
  %32 = icmp eq ptr %31, null
  br i1 %32, label %33, label %37

33:                                               ; preds = %28
  %34 = load i64, ptr @H5E_SYM_g, align 8, !tbaa !10
  %35 = load i64, ptr @H5E_CANTGET_g, align 8, !tbaa !10
  %36 = tail call i32 (ptr, ptr, i32, i64, i64, ptr, ...) @H5E_printf_stack(ptr noundef nonnull @.str.2, ptr noundef nonnull @__func__.H5G__node_cmp3, i32 noundef 420, i64 noundef %34, i64 noundef %35, ptr noundef nonnull @.str.44) #9
  br label %44

37:                                               ; preds = %28
  %38 = load ptr, ptr %1, align 8, !tbaa !32
  %39 = load i64, ptr %22, align 8, !tbaa !31
  %40 = load i64, ptr %2, align 8, !tbaa !25
  %41 = sub i64 %39, %40
  %42 = tail call i32 @strncmp(ptr noundef %38, ptr noundef nonnull %31, i64 noundef %41) #10
  %43 = icmp sgt i32 %42, 0
  %spec.select = zext i1 %43 to i32
  br label %44

44:                                               ; preds = %37, %20, %16, %33, %3
  %.0 = phi i32 [ -1, %16 ], [ -1, %33 ], [ 0, %3 ], [ -1, %20 ], [ %spec.select, %37 ]
  ret i32 %.0
}